(dp0
Vengine
p1
S'pdflatex'
p2
sVpackages
p3
c__builtin__
set
p4
((lp5
tp6
Rp7
sVfiles_with_guttermarks
p8
g4
((lp9
V/Users/philippeperret/Sites/WriterToolbox/objet/unan/aide/manuel_utilisateur/sources/operations.tex
p10
aS'manuel_utilisateur.tex'
p11
aV/Users/philippeperret/Sites/WriterToolbox/objet/unan/aide/manuel_utilisateur/sources/mail_quotidien.tex
p12
aV/Users/philippeperret/Sites/WriterToolbox/objet/unan/aide/manuel_utilisateur/sources/overview.tex
p13
aV/Users/philippeperret/Sites/WriterToolbox/objet/unan/aide/manuel_utilisateur/./sources/programme/tdm.tex
p14
aV/Users/philippeperret/Sites/WriterToolbox/objet/unan/aide/manuel_utilisateur/sources/premiers_pas.tex
p15
aV/Users/philippeperret/Sites/WriterToolbox/objet/unan/aide/manuel_utilisateur/sources/preferences.tex
p16
aV/Users/philippeperret/Sites/WriterToolbox/objet/unan/aide/manuel_utilisateur/./sources/langage/tdm.tex
p17
aV/Users/philippeperret/Sites/WriterToolbox/objet/unan/aide/manuel_utilisateur/sources/faq.tex
p18
atp19
Rp20
sVsynctex
p21
I01
s.