(dp0
Vengine
p1
S'pdflatex'
p2
sVpackages
p3
c__builtin__
set
p4
((lp5
tp6
Rp7
sVfiles_with_guttermarks
p8
g4
((lp9
V/Users/philippeperret/Sites/WriterToolbox/objet/unan/aide/manuel_utilisateur/sources/operations.tex
p10
aS'manuel_utilisateur.tex'
p11
aV/Users/philippeperret/Sites/WriterToolbox/objet/unan/aide/manuel_utilisateur/sources/preferences.tex
p12
atp13
Rp14
sVsynctex
p15
I01
s.